; Function Attrs: mustprogress uwtable
define void @_ZN4SHA16updateERKNSt7__cxx1112basic_stringIcSt11char_traitsIcESaIcEEE(ptr noundef nonnull align 8 dereferenceable(64) %0, ptr noundef nonnull align 8 dereferenceable(32) %1) local_unnamed_addr #3 align 2 personality ptr @__gxx_personality_v0 {
  %3 = alloca %"class.std::__cxx11::basic_istringstream", align 8
  call void @llvm.lifetime.start.p0(i64 384, ptr nonnull %3) #17
  call void @_ZNSt7__cxx1119basic_istringstreamIcSt11char_traitsIcESaIcEEC1ERKNS_12basic_stringIcS2_S3_EESt13_Ios_Openmode(ptr noundef nonnull align 8 dereferenceable(120) %3, ptr noundef nonnull align 8 dereferenceable(32) %1, i32 noundef 8)
  invoke void @_ZN4SHA16updateERSi(ptr noundef nonnull align 8 dereferenceable(64) %0, ptr noundef nonnull align 8 dereferenceable(16) %3)
          to label %4 unwind label %28

4:                                                ; preds = %2
  %5 = load ptr, ptr @_ZTTNSt7__cxx1119basic_istringstreamIcSt11char_traitsIcESaIcEEE, align 8
  store ptr %5, ptr %3, align 8, !tbaa !21
  %6 = load ptr, ptr getelementptr inbounds nuw (i8, ptr @_ZTTNSt7__cxx1119basic_istringstreamIcSt11char_traitsIcESaIcEEE, i64 24), align 8
  %7 = getelementptr i8, ptr %5, i64 -24
  %8 = load i64, ptr %7, align 8
  %9 = getelementptr inbounds i8, ptr %3, i64 %8
  store ptr %6, ptr %9, align 8, !tbaa !21
  %10 = getelementptr inbounds nuw i8, ptr %3, i64 16
  store ptr getelementptr inbounds nuw inrange(-16, 112) (i8, ptr @_ZTVNSt7__cxx1115basic_stringbufIcSt11char_traitsIcESaIcEEE, i64 16), ptr %10, align 8, !tbaa !21
  %11 = getelementptr inbounds nuw i8, ptr %3, i64 88
  %12 = load ptr, ptr %11, align 8, !tbaa !20
  %13 = getelementptr inbounds nuw i8, ptr %3, i64 104
  %14 = icmp eq ptr %12, %13
  br i1 %14, label %_ZNKSt7__cxx1112basic_stringIcSt11char_traitsIcESaIcEE11_M_is_localEv.exit.thread.i.i.i.i.i, label %_ZNKSt7__cxx1112basic_stringIcSt11char_traitsIcESaIcEE11_M_is_localEv.exit.i.i.i.i.i

_ZNKSt7__cxx1112basic_stringIcSt11char_traitsIcESaIcEE11_M_is_localEv.exit.thread.i.i.i.i.i: ; preds = %4
  %15 = getelementptr inbounds nuw i8, ptr %3, i64 96
  %16 = load i64, ptr %15, align 8, !tbaa !12
  %17 = icmp ult i64 %16, 16
  call void @llvm.assume(i1 %17)
  br label %_ZNSt7__cxx1119basic_istringstreamIcSt11char_traitsIcESaIcEED1Ev.exit

_ZNKSt7__cxx1112basic_stringIcSt11char_traitsIcESaIcEE11_M_is_localEv.exit.i.i.i.i.i: ; preds = %4
  %18 = load i64, ptr %13, align 8, !tbaa !15
  %19 = add i64 %18, 1
  call void @_ZdlPvm(ptr noundef %12, i64 noundef %19) #16
  br label %_ZNSt7__cxx1119basic_istringstreamIcSt11char_traitsIcESaIcEED1Ev.exit

_ZNSt7__cxx1119basic_istringstreamIcSt11char_traitsIcESaIcEED1Ev.exit: ; preds = %_ZNKSt7__cxx1112basic_stringIcSt11char_traitsIcESaIcEE11_M_is_localEv.exit.thread.i.i.i.i.i, %_ZNKSt7__cxx1112basic_stringIcSt11char_traitsIcESaIcEE11_M_is_localEv.exit.i.i.i.i.i
  store ptr getelementptr inbounds nuw inrange(-16, 112) (i8, ptr @_ZTVSt15basic_streambufIcSt11char_traitsIcEE, i64 16), ptr %10, align 8, !tbaa !21
  %20 = getelementptr inbounds nuw i8, ptr %3, i64 72
  call void @_ZNSt6localeD1Ev(ptr noundef nonnull align 8 dereferenceable(8) %20) #17
  %21 = load ptr, ptr getelementptr inbounds nuw (i8, ptr @_ZTTNSt7__cxx1119basic_istringstreamIcSt11char_traitsIcESaIcEEE, i64 8), align 8
  store ptr %21, ptr %3, align 8, !tbaa !21
  %22 = load ptr, ptr getelementptr inbounds nuw (i8, ptr @_ZTTNSt7__cxx1119basic_istringstreamIcSt11char_traitsIcESaIcEEE, i64 16), align 8
  %23 = getelementptr i8, ptr %21, i64 -24
  %24 = load i64, ptr %23, align 8
  %25 = getelementptr inbounds i8, ptr %3, i64 %24
  store ptr %22, ptr %25, align 8, !tbaa !21
  %26 = getelementptr inbounds nuw i8, ptr %3, i64 8
  store i64 0, ptr %26, align 8, !tbaa !23
  %27 = getelementptr inbounds nuw i8, ptr %3, i64 120
  call void @_ZNSt8ios_baseD2Ev(ptr noundef nonnull align 8 dereferenceable(264) %27) #17
  call void @llvm.lifetime.end.p0(i64 384, ptr nonnull %3) #17
  ret void

28:                                               ; preds = %2
  %29 = landingpad { ptr, i32 }
          cleanup
  call void @_ZNSt7__cxx1119basic_istringstreamIcSt11char_traitsIcESaIcEED1Ev(ptr noundef nonnull align 8 dereferenceable(120) %3) #17
  call void @llvm.lifetime.end.p0(i64 384, ptr nonnull %3) #17
  resume { ptr, i32 } %29
}